target datalayout = "e-m:e-p270:32:32-p271:32:32-p272:64:64-i64:64-i128:128-f80:128-n8:16:32:64-S128"
target triple = "x86_64-pc-linux-gnu"

%struct.tm = type { i32, i32, i32, i32, i32, i32, i32, i32, i32, i64, ptr }

; Function Attrs: nounwind uwtable
define internal i64 @DSTcorrect(i64 noundef %0, i64 noundef %1) #0 {
  %3 = alloca i64, align 8
  %4 = alloca i64, align 8
  %5 = alloca i64, align 8
  %6 = alloca i64, align 8
  %7 = alloca ptr, align 8
  store i64 %0, ptr %3, align 8, !tbaa !4
  store i64 %1, ptr %4, align 8, !tbaa !4
  call void @llvm.lifetime.start.p0(i64 8, ptr %5) #7
  call void @llvm.lifetime.start.p0(i64 8, ptr %6) #7
  call void @llvm.lifetime.start.p0(i64 8, ptr %7) #7
  %8 = call ptr @localtime(ptr noundef %3) #7
  store ptr %8, ptr %7, align 8, !tbaa !13
  %9 = load ptr, ptr %7, align 8, !tbaa !13
  %10 = getelementptr inbounds nuw %struct.tm, ptr %9, i32 0, i32 2
  %11 = load i32, ptr %10, align 8, !tbaa !47
  %12 = add nsw i32 %11, 1
  %13 = srem i32 %12, 24
  %14 = sext i32 %13 to i64
  store i64 %14, ptr %5, align 8, !tbaa !4
  %15 = call ptr @localtime(ptr noundef %4) #7
  store ptr %15, ptr %7, align 8, !tbaa !13
  %16 = load ptr, ptr %7, align 8, !tbaa !13
  %17 = getelementptr inbounds nuw %struct.tm, ptr %16, i32 0, i32 2
  %18 = load i32, ptr %17, align 8, !tbaa !47
  %19 = add nsw i32 %18, 1
  %20 = srem i32 %19, 24
  %21 = sext i32 %20 to i64
  store i64 %21, ptr %6, align 8, !tbaa !4
  %22 = load i64, ptr %4, align 8, !tbaa !4
  %23 = load i64, ptr %3, align 8, !tbaa !4
  %24 = sub nsw i64 %22, %23
  %25 = load i64, ptr %5, align 8, !tbaa !4
  %26 = load i64, ptr %6, align 8, !tbaa !4
  %27 = sub nsw i64 %25, %26
  %28 = mul nsw i64 %27, 3600
  %29 = add nsw i64 %24, %28
  call void @llvm.lifetime.end.p0(i64 8, ptr %7) #7
  call void @llvm.lifetime.end.p0(i64 8, ptr %6) #7
  call void @llvm.lifetime.end.p0(i64 8, ptr %5) #7
  ret i64 %29
}

; Function Attrs: nounwind uwtable
define internal i64 @RelativeMonth(i64 noundef %0, i64 noundef %1, i64 noundef %2) #0 {
  %4 = alloca i64, align 8
  %5 = alloca i64, align 8
  %6 = alloca i64, align 8
  %7 = alloca i64, align 8
  %8 = alloca ptr, align 8
  %9 = alloca i64, align 8
  %10 = alloca i64, align 8
  %11 = alloca i32, align 4
  store i64 %0, ptr %5, align 8, !tbaa !4
  store i64 %1, ptr %6, align 8, !tbaa !4
  store i64 %2, ptr %7, align 8, !tbaa !4
  call void @llvm.lifetime.start.p0(i64 8, ptr %8) #7
  call void @llvm.lifetime.start.p0(i64 8, ptr %9) #7
  call void @llvm.lifetime.start.p0(i64 8, ptr %10) #7
  %12 = load i64, ptr %7, align 8, !tbaa !4
  %13 = icmp eq i64 %12, 0
  br i1 %13, label %14, label %15

14:                                               ; preds = %3
  store i64 0, ptr %4, align 8
  store i32 1, ptr %11, align 4
  br label %56

15:                                               ; preds = %3
  %16 = call ptr @localtime(ptr noundef %5) #7
  store ptr %16, ptr %8, align 8, !tbaa !13
  %17 = load ptr, ptr %8, align 8, !tbaa !13
  %18 = getelementptr inbounds nuw %struct.tm, ptr %17, i32 0, i32 5
  %19 = load i32, ptr %18, align 4, !tbaa !33
  %20 = add nsw i32 %19, 1900
  %21 = mul nsw i32 12, %20
  %22 = load ptr, ptr %8, align 8, !tbaa !13
  %23 = getelementptr inbounds nuw %struct.tm, ptr %22, i32 0, i32 4
  %24 = load i32, ptr %23, align 8, !tbaa !36
  %25 = add nsw i32 %21, %24
  %26 = sext i32 %25 to i64
  %27 = load i64, ptr %7, align 8, !tbaa !4
  %28 = add nsw i64 %26, %27
  store i64 %28, ptr %9, align 8, !tbaa !4
  %29 = load i64, ptr %9, align 8, !tbaa !4
  %30 = sdiv i64 %29, 12
  store i64 %30, ptr %10, align 8, !tbaa !4
  %31 = load i64, ptr %9, align 8, !tbaa !4
  %32 = srem i64 %31, 12
  %33 = add nsw i64 %32, 1
  store i64 %33, ptr %9, align 8, !tbaa !4
  %34 = load i64, ptr %5, align 8, !tbaa !4
  %35 = load i64, ptr %9, align 8, !tbaa !4
  %36 = load ptr, ptr %8, align 8, !tbaa !13
  %37 = getelementptr inbounds nuw %struct.tm, ptr %36, i32 0, i32 3
  %38 = load i32, ptr %37, align 4, !tbaa !39
  %39 = sext i32 %38 to i64
  %40 = load i64, ptr %10, align 8, !tbaa !4
  %41 = load ptr, ptr %8, align 8, !tbaa !13
  %42 = getelementptr inbounds nuw %struct.tm, ptr %41, i32 0, i32 2
  %43 = load i32, ptr %42, align 8, !tbaa !47
  %44 = sext i32 %43 to i64
  %45 = load ptr, ptr %8, align 8, !tbaa !13
  %46 = getelementptr inbounds nuw %struct.tm, ptr %45, i32 0, i32 1
  %47 = load i32, ptr %46, align 4, !tbaa !48
  %48 = sext i32 %47 to i64
  %49 = load ptr, ptr %8, align 8, !tbaa !13
  %50 = getelementptr inbounds nuw %struct.tm, ptr %49, i32 0, i32 0
  %51 = load i32, ptr %50, align 8, !tbaa !49
  %52 = sext i32 %51 to i64
  %53 = load i64, ptr %6, align 8, !tbaa !4
  %54 = call i64 @Convert(i64 noundef %35, i64 noundef %39, i64 noundef %40, i64 noundef %44, i64 noundef %48, i64 noundef %52, i64 noundef %53, i32 noundef 2)
  %55 = call i64 @DSTcorrect(i64 noundef %34, i64 noundef %54)
  store i64 %55, ptr %4, align 8
  store i32 1, ptr %11, align 4
  br label %56

56:                                               ; preds = %15, %14
  call void @llvm.lifetime.end.p0(i64 8, ptr %10) #7
  call void @llvm.lifetime.end.p0(i64 8, ptr %9) #7
  call void @llvm.lifetime.end.p0(i64 8, ptr %8) #7
  %57 = load i64, ptr %4, align 8
  ret i64 %57
}