; Function Attrs: nounwind uwtable
define internal fastcc i64 @RelativeMonth(i64 noundef %0, i64 noundef %1, i64 noundef %2) unnamed_addr #0 {
  %4 = alloca i64, align 8
  %5 = alloca i64, align 8
  %6 = alloca i64, align 8
  store i64 %0, ptr %6, align 8, !tbaa !4
  %7 = icmp eq i64 %2, 0
  br i1 %7, label %50, label %8

8:                                                ; preds = %3
  %9 = call ptr @localtime(ptr noundef nonnull %6) #7
  %10 = getelementptr inbounds nuw i8, ptr %9, i64 20
  %11 = load i32, ptr %10, align 4, !tbaa !44
  %12 = mul i32 %11, 12
  %13 = add i32 %12, 22800
  %14 = getelementptr inbounds nuw i8, ptr %9, i64 16
  %15 = load i32, ptr %14, align 8, !tbaa !45
  %16 = add nsw i32 %13, %15
  %17 = sext i32 %16 to i64
  %18 = add nsw i64 %2, %17
  %19 = sdiv i64 %18, 12
  %20 = srem i64 %18, 12
  %21 = add nsw i64 %20, 1
  %22 = load i64, ptr %6, align 8, !tbaa !4
  %23 = getelementptr inbounds nuw i8, ptr %9, i64 12
  %24 = load i32, ptr %23, align 4, !tbaa !46
  %25 = sext i32 %24 to i64
  %26 = getelementptr inbounds nuw i8, ptr %9, i64 8
  %27 = load i32, ptr %26, align 8, !tbaa !47
  %28 = sext i32 %27 to i64
  %29 = getelementptr inbounds nuw i8, ptr %9, i64 4
  %30 = load i32, ptr %29, align 4, !tbaa !48
  %31 = sext i32 %30 to i64
  %32 = load i32, ptr %9, align 8, !tbaa !49
  %33 = sext i32 %32 to i64
  %34 = call fastcc i64 @Convert(i64 noundef %21, i64 noundef %25, i64 noundef %19, i64 noundef %28, i64 noundef %31, i64 noundef %33, i64 noundef %1, i32 noundef 2)
  call void @llvm.lifetime.start.p0(i64 8, ptr nonnull %4)
  call void @llvm.lifetime.start.p0(i64 8, ptr nonnull %5)
  store i64 %22, ptr %4, align 8, !tbaa !4
  store i64 %34, ptr %5, align 8, !tbaa !4
  %35 = call ptr @localtime(ptr noundef nonnull %4) #7
  %36 = getelementptr inbounds nuw i8, ptr %35, i64 8
  %37 = load i32, ptr %36, align 8, !tbaa !47
  %38 = add nsw i32 %37, 1
  %39 = srem i32 %38, 24
  %40 = call ptr @localtime(ptr noundef nonnull %5) #7
  %41 = getelementptr inbounds nuw i8, ptr %40, i64 8
  %42 = load i32, ptr %41, align 8, !tbaa !47
  %43 = add nsw i32 %42, 1
  %44 = srem i32 %43, 24
  %45 = load i64, ptr %5, align 8, !tbaa !4
  %46 = load i64, ptr %4, align 8, !tbaa !4
  %47 = sub i64 %45, %46
  %narrow.i = sub nsw i32 %39, %44
  %narrow3.i = mul nsw i32 %narrow.i, 3600
  %48 = sext i32 %narrow3.i to i64
  %49 = add nsw i64 %47, %48
  call void @llvm.lifetime.end.p0(i64 8, ptr nonnull %4)
  call void @llvm.lifetime.end.p0(i64 8, ptr nonnull %5)
  br label %50

50:                                               ; preds = %3, %8
  %.0 = phi i64 [ %49, %8 ], [ 0, %3 ]
  ret i64 %.0
}